target datalayout = "e-m:e-p270:32:32-p271:32:32-p272:64:64-i64:64-i128:128-f80:128-n8:16:32:64-S128"
target triple = "x86_64-pc-linux-gnu"

%struct._VAConfigAttrib = type { i32, i32 }
%struct.AVCodecContext = type { ptr, i32, i32, ptr, i32, i32, ptr, ptr, ptr, i64, i32, i32, ptr, i32, %struct.AVRational, %struct.AVRational, %struct.AVRational, i32, i32, i32, i32, i32, %struct.AVRational, i32, i32, i32, i32, i32, i32, i32, i32, i32, i32, i32, ptr, ptr, i32, float, float, float, float, float, float, float, float, float, i32, i32, i32, i32, i32, i32, i32, i32, i32, i32, i32, i32, ptr, ptr, ptr, i32, i32, i32, i32, i32, i32, i32, i32, i32, i32, %struct.AVChannelLayout, i32, i32, i32, i32, i32, i32, i32, i32, ptr, i32, i32, i32, float, float, i32, i32, i32, i32, i32, ptr, i64, i64, float, float, i32, i32, ptr, ptr, i32, i32, i32, i32, i32, ptr, ptr, ptr, ptr, i32, i32, [8 x i64], i32, i32, i32, i32, i32, i32, i32, ptr, ptr, i32, i32, i32, i32, i32, i32, i32, i32, i32, i32, ptr, ptr, i32, i32, ptr, ptr, ptr, ptr, i32, i32, i64, i32, i32, i64, ptr, i64, ptr, i32, ptr, i32 }
%struct.AVRational = type { i32, i32 }
%struct.AVChannelLayout = type { i32, i32, %union.anon, ptr }
%union.anon = type { i64 }
%struct.VAAPIEncodeContext = type { %struct.FFHWBaseEncodeContext, ptr, i32, i32, i32, i32, i32, i32, ptr, ptr, i32, i32, i32, i32, i32, i32, [4 x %struct._VAConfigAttrib], i32, i32, i32, ptr, ptr, [4 x i32], [4 x ptr], [4 x i64], i32, %struct._VAEncMiscParameterRateControl, %struct._VAEncMiscParameterHRD, %struct._VAEncMiscParameterFrameRate, %struct._VAEncMiscParameterBufferMaxFrameSize, %struct._VAEncMiscParameterBufferQualityLevel, ptr, ptr, i32, i32, i32, i32, i32, i32, [20 x i32], [22 x i32], [21 x i32], [23 x i32], i32, i32, ptr, i32, i32 }
%struct.FFHWBaseEncodeContext = type { ptr, ptr, ptr, i32, i32, i32, i32, i32, i32, ptr, ptr, ptr, ptr, ptr, ptr, ptr, ptr, [2 x ptr], i32, i64, i64, i64, i64, i64, i64, i64, [112 x i64], i32, i32, i32, i32, i32, i32, i32, i32, i32, i32, i32, i32, i32, i32, i32, i32, ptr, i32, ptr, i32, ptr }
%struct._VAEncMiscParameterRateControl = type { i32, i32, i32, i32, i32, i32, %union.anon.0, i32, i32, i32, i32, [4 x i32] }
%union.anon.0 = type { %struct.anon }
%struct.anon = type { i32 }
%struct._VAEncMiscParameterHRD = type { i32, i32, [4 x i32] }
%struct._VAEncMiscParameterFrameRate = type { i32, %union.anon.1, [4 x i32] }
%union.anon.1 = type { %struct.anon.2 }
%struct.anon.2 = type { i32 }
%struct._VAEncMiscParameterBufferMaxFrameSize = type { i32, i32, [4 x i32] }
%struct._VAEncMiscParameterBufferQualityLevel = type { i32, [4 x i32] }

@.str.142 = private unnamed_addr constant [78 x i8] c"Not enough rows to use configured number of slices (%d < %d); using maximum.\0A\00", align 1
@.str.143 = private unnamed_addr constant [65 x i8] c"Driver does not support any usable slice structure modes (%#x).\0A\00", align 1

; Function Attrs: cold nounwind optsize uwtable
define internal i32 @vaapi_encode_init_row_slice_structure(ptr noundef %0, i32 noundef %1) #2 {
  %3 = alloca i32, align 4
  %4 = alloca ptr, align 8
  %5 = alloca i32, align 4
  %6 = alloca ptr, align 8
  %7 = alloca i32, align 4
  %8 = alloca i32, align 4
  %9 = alloca i32, align 4
  store ptr %0, ptr %4, align 8, !tbaa !4
  store i32 %1, ptr %5, align 4, !tbaa !37
  call void @llvm.lifetime.start.p0(i64 8, ptr %6) #10
  %10 = load ptr, ptr %4, align 8, !tbaa !4
  %11 = getelementptr inbounds nuw %struct.AVCodecContext, ptr %10, i32 0, i32 6
  %12 = load ptr, ptr %11, align 8, !tbaa !11
  store ptr %12, ptr %6, align 8, !tbaa !33
  call void @llvm.lifetime.start.p0(i64 4, ptr %7) #10
  %13 = load ptr, ptr %4, align 8, !tbaa !4
  %14 = getelementptr inbounds nuw %struct.AVCodecContext, ptr %13, i32 0, i32 68
  %15 = load i32, ptr %14, align 4, !tbaa !201
  %16 = load ptr, ptr %6, align 8, !tbaa !33
  %17 = getelementptr inbounds nuw %struct.VAAPIEncodeContext, ptr %16, i32 0, i32 33
  %18 = load i32, ptr %17, align 8, !tbaa !202
  %19 = icmp sgt i32 %15, %18
  br i1 %19, label %20, label %31

20:                                               ; preds = %2
  %21 = load ptr, ptr %4, align 8, !tbaa !4
  %22 = load ptr, ptr %6, align 8, !tbaa !33
  %23 = getelementptr inbounds nuw %struct.VAAPIEncodeContext, ptr %22, i32 0, i32 33
  %24 = load i32, ptr %23, align 8, !tbaa !202
  %25 = load ptr, ptr %4, align 8, !tbaa !4
  %26 = getelementptr inbounds nuw %struct.AVCodecContext, ptr %25, i32 0, i32 68
  %27 = load i32, ptr %26, align 4, !tbaa !201
  call void (ptr, i32, ptr, ...) @av_log(ptr noundef %21, i32 noundef 24, ptr noundef @.str.142, i32 noundef %24, i32 noundef %27)
  %28 = load ptr, ptr %6, align 8, !tbaa !33
  %29 = getelementptr inbounds nuw %struct.VAAPIEncodeContext, ptr %28, i32 0, i32 33
  %30 = load i32, ptr %29, align 8, !tbaa !202
  store i32 %30, ptr %7, align 4, !tbaa !37
  br label %35

31:                                               ; preds = %2
  %32 = load ptr, ptr %4, align 8, !tbaa !4
  %33 = getelementptr inbounds nuw %struct.AVCodecContext, ptr %32, i32 0, i32 68
  %34 = load i32, ptr %33, align 4, !tbaa !201
  store i32 %34, ptr %7, align 4, !tbaa !37
  br label %35

35:                                               ; preds = %31, %20
  %36 = load i32, ptr %5, align 4, !tbaa !37
  %37 = and i32 %36, 16
  %38 = icmp ne i32 %37, 0
  br i1 %38, label %43, label %39

39:                                               ; preds = %35
  %40 = load i32, ptr %5, align 4, !tbaa !37
  %41 = and i32 %40, 2
  %42 = icmp ne i32 %41, 0
  br i1 %42, label %43, label %56

43:                                               ; preds = %39, %35
  %44 = load i32, ptr %7, align 4, !tbaa !37
  %45 = load ptr, ptr %6, align 8, !tbaa !33
  %46 = getelementptr inbounds nuw %struct.VAAPIEncodeContext, ptr %45, i32 0, i32 35
  store i32 %44, ptr %46, align 8, !tbaa !206
  %47 = load ptr, ptr %6, align 8, !tbaa !33
  %48 = getelementptr inbounds nuw %struct.VAAPIEncodeContext, ptr %47, i32 0, i32 33
  %49 = load i32, ptr %48, align 8, !tbaa !202
  %50 = load ptr, ptr %6, align 8, !tbaa !33
  %51 = getelementptr inbounds nuw %struct.VAAPIEncodeContext, ptr %50, i32 0, i32 35
  %52 = load i32, ptr %51, align 8, !tbaa !206
  %53 = sdiv i32 %49, %52
  %54 = load ptr, ptr %6, align 8, !tbaa !33
  %55 = getelementptr inbounds nuw %struct.VAAPIEncodeContext, ptr %54, i32 0, i32 36
  store i32 %53, ptr %55, align 4, !tbaa !207
  br label %108

56:                                               ; preds = %39
  %57 = load i32, ptr %5, align 4, !tbaa !37
  %58 = and i32 %57, 1
  %59 = icmp ne i32 %58, 0
  br i1 %59, label %60, label %91

60:                                               ; preds = %56
  call void @llvm.lifetime.start.p0(i64 4, ptr %8) #10
  store i32 1, ptr %8, align 4, !tbaa !37
  br label %61

61:                                               ; preds = %74, %60
  %62 = load i32, ptr %8, align 4, !tbaa !37
  %63 = mul nsw i32 2, %62
  %64 = load i32, ptr %7, align 4, !tbaa !37
  %65 = sub nsw i32 %64, 1
  %66 = mul nsw i32 %63, %65
  %67 = add nsw i32 %66, 1
  %68 = load ptr, ptr %6, align 8, !tbaa !33
  %69 = getelementptr inbounds nuw %struct.VAAPIEncodeContext, ptr %68, i32 0, i32 33
  %70 = load i32, ptr %69, align 8, !tbaa !202
  %71 = icmp sge i32 %67, %70
  br i1 %71, label %72, label %73

72:                                               ; preds = %61
  br label %77

73:                                               ; preds = %61
  br label %74

74:                                               ; preds = %73
  %75 = load i32, ptr %8, align 4, !tbaa !37
  %76 = mul nsw i32 %75, 2
  store i32 %76, ptr %8, align 4, !tbaa !37
  br label %61

77:                                               ; preds = %72
  %78 = load ptr, ptr %6, align 8, !tbaa !33
  %79 = getelementptr inbounds nuw %struct.VAAPIEncodeContext, ptr %78, i32 0, i32 33
  %80 = load i32, ptr %79, align 8, !tbaa !202
  %81 = load i32, ptr %8, align 4, !tbaa !37
  %82 = add nsw i32 %80, %81
  %83 = sub nsw i32 %82, 1
  %84 = load i32, ptr %8, align 4, !tbaa !37
  %85 = sdiv i32 %83, %84
  %86 = load ptr, ptr %6, align 8, !tbaa !33
  %87 = getelementptr inbounds nuw %struct.VAAPIEncodeContext, ptr %86, i32 0, i32 35
  store i32 %85, ptr %87, align 8, !tbaa !206
  %88 = load i32, ptr %8, align 4, !tbaa !37
  %89 = load ptr, ptr %6, align 8, !tbaa !33
  %90 = getelementptr inbounds nuw %struct.VAAPIEncodeContext, ptr %89, i32 0, i32 36
  store i32 %88, ptr %90, align 4, !tbaa !207
  call void @llvm.lifetime.end.p0(i64 4, ptr %8) #10
  br label %107

91:                                               ; preds = %56
  %92 = load i32, ptr %5, align 4, !tbaa !37
  %93 = and i32 %92, 4
  %94 = icmp ne i32 %93, 0
  br i1 %94, label %95, label %103

95:                                               ; preds = %91
  %96 = load ptr, ptr %6, align 8, !tbaa !33
  %97 = getelementptr inbounds nuw %struct.VAAPIEncodeContext, ptr %96, i32 0, i32 33
  %98 = load i32, ptr %97, align 8, !tbaa !202
  %99 = load ptr, ptr %6, align 8, !tbaa !33
  %100 = getelementptr inbounds nuw %struct.VAAPIEncodeContext, ptr %99, i32 0, i32 35
  store i32 %98, ptr %100, align 8, !tbaa !206
  %101 = load ptr, ptr %6, align 8, !tbaa !33
  %102 = getelementptr inbounds nuw %struct.VAAPIEncodeContext, ptr %101, i32 0, i32 36
  store i32 1, ptr %102, align 4, !tbaa !207
  br label %106

103:                                              ; preds = %91
  %104 = load ptr, ptr %4, align 8, !tbaa !4
  %105 = load i32, ptr %5, align 4, !tbaa !37
  call void (ptr, i32, ptr, ...) @av_log(ptr noundef %104, i32 noundef 16, ptr noundef @.str.143, i32 noundef %105)
  store i32 -22, ptr %3, align 4
  store i32 1, ptr %9, align 4
  br label %109

106:                                              ; preds = %95
  br label %107

107:                                              ; preds = %106, %77
  br label %108

108:                                              ; preds = %107, %43
  store i32 0, ptr %3, align 4
  store i32 1, ptr %9, align 4
  br label %109

109:                                              ; preds = %108, %103
  call void @llvm.lifetime.end.p0(i64 4, ptr %7) #10
  call void @llvm.lifetime.end.p0(i64 8, ptr %6) #10
  %110 = load i32, ptr %3, align 4
  ret i32 %110
}