; Function Attrs: cold nounwind optsize uwtable
define internal fastcc range(i32 -22, 1) i32 @vaapi_encode_init_row_slice_structure(ptr noundef %0, i32 noundef range(i32 -2147483647, -2147483648) %1) unnamed_addr #2 {
  %3 = getelementptr inbounds nuw i8, ptr %0, i64 32
  %4 = load ptr, ptr %3, align 8, !tbaa !4
  %5 = getelementptr inbounds nuw i8, ptr %0, i64 340
  %6 = load i32, ptr %5, align 4, !tbaa !167
  %7 = getelementptr inbounds nuw i8, ptr %4, i64 1584
  %8 = load i32, ptr %7, align 8, !tbaa !168
  %9 = icmp sgt i32 %6, %8
  br i1 %9, label %10, label %12

10:                                               ; preds = %2
  tail call void (ptr, i32, ptr, ...) @av_log(ptr noundef nonnull %0, i32 noundef 24, ptr noundef nonnull @.str.142, i32 noundef %8, i32 noundef %6) #9
  %11 = load i32, ptr %7, align 8, !tbaa !168
  br label %12

12:                                               ; preds = %2, %10
  %13 = phi i32 [ %11, %10 ], [ %8, %2 ]
  %.032 = phi i32 [ %11, %10 ], [ %6, %2 ]
  %14 = and i32 %1, 18
  %or.cond = icmp eq i32 %14, 0
  br i1 %or.cond, label %19, label %15

15:                                               ; preds = %12
  %16 = getelementptr inbounds nuw i8, ptr %4, i64 1592
  store i32 %.032, ptr %16, align 8, !tbaa !172
  %17 = sdiv i32 %13, %.032
  %18 = getelementptr inbounds nuw i8, ptr %4, i64 1596
  store i32 %17, ptr %18, align 4, !tbaa !173
  br label %38

19:                                               ; preds = %12
  %20 = and i32 %1, 1
  %.not38 = icmp eq i32 %20, 0
  br i1 %.not38, label %32, label %.preheader

.preheader:                                       ; preds = %19
  %21 = add nsw i32 %.032, -1
  br label %22

22:                                               ; preds = %.preheader, %22
  %.0 = phi i32 [ %23, %22 ], [ 1, %.preheader ]
  %23 = shl nsw i32 %.0, 1
  %24 = mul nsw i32 %23, %21
  %25 = or disjoint i32 %24, 1
  %.not40 = icmp slt i32 %25, %13
  br i1 %.not40, label %22, label %26

26:                                               ; preds = %22
  %27 = add i32 %.0, -1
  %28 = add i32 %27, %13
  %29 = sdiv i32 %28, %.0
  %30 = getelementptr inbounds nuw i8, ptr %4, i64 1592
  store i32 %29, ptr %30, align 8, !tbaa !172
  %31 = getelementptr inbounds nuw i8, ptr %4, i64 1596
  store i32 %.0, ptr %31, align 4, !tbaa !173
  br label %38

32:                                               ; preds = %19
  %33 = and i32 %1, 4
  %.not39 = icmp eq i32 %33, 0
  br i1 %.not39, label %37, label %34

34:                                               ; preds = %32
  %35 = getelementptr inbounds nuw i8, ptr %4, i64 1592
  store i32 %13, ptr %35, align 8, !tbaa !172
  %36 = getelementptr inbounds nuw i8, ptr %4, i64 1596
  store i32 1, ptr %36, align 4, !tbaa !173
  br label %38

37:                                               ; preds = %32
  tail call void (ptr, i32, ptr, ...) @av_log(ptr noundef nonnull %0, i32 noundef 16, ptr noundef nonnull @.str.143, i32 noundef %1) #9
  br label %38

38:                                               ; preds = %15, %34, %26, %37
  %.033 = phi i32 [ -22, %37 ], [ 0, %26 ], [ 0, %34 ], [ 0, %15 ]
  ret i32 %.033
}